(i__main__
mutable_serializer_linker
p1
(dp2
S'map'
p3
NsS'current_player'
p4
NsS'current_player_index'
p5
I0
sS'highest_identifier'
p6
I32
sS'current_card'
p7
S''
sS'furball'
p8
(i__main__
furball
(dp9
S'room_wrapper'
p10
NsS'identifier'
p11
S'mutable_1'
p12
sbsS'players'
p13
(lp14
(i__main__
player
(dp15
g10
Nsg11
S'mutable_28'
p16
sS'name'
p17
S'Fred'
p18
sba(i__main__
player
(dp19
g10
Nsg11
S'mutable_30'
p20
sg17
S'James'
p21
sba(i__main__
player
(dp22
g10
Nsg11
S'mutable_32'
sg17
S'Joe'
p23
sbasS'flags'
p24
S' furball_always_tries_to_move'
sS'room_wrappers'
p25
(lp26
(i__main__
mutable_room_wrapper
p27
(dp28
S'neighbors'
p29
(dp30
S'west'
p31
(i__main__
mutable_room_wrapper
p32
(dp33
g29
(dp34
g31
(i__main__
mutable_room_wrapper
p35
(dp36
g29
(dp37
S'east'
p38
g32
sS'north'
p39
(i__main__
mutable_room_wrapper
p40
(dp41
g29
(dp42
g38
(i__main__
mutable_room_wrapper
p43
(dp44
g29
(dp45
g31
g40
sg38
(i__main__
mutable_room_wrapper
p46
(dp47
g29
(dp48
g31
g43
sg38
(i__main__
mutable_room_wrapper
p49
(dp50
g29
(dp51
g31
g46
sg38
(i__main__
mutable_room_wrapper
p52
(dp53
g29
(dp54
g31
g49
sg39
(i__main__
mutable_room_wrapper
p55
(dp56
g29
(dp57
g31
(i__main__
mutable_room_wrapper
p58
(dp59
g29
(dp60
g31
(i__main__
mutable_room_wrapper
p61
(dp62
g29
(dp63
g31
(i__main__
mutable_room_wrapper
p64
(dp65
g29
(dp66
g31
(i__main__
mutable_room_wrapper
p67
(dp68
g29
(dp69
g38
g64
sg39
(i__main__
mutable_room_wrapper
p70
(dp71
g29
(dp72
g38
(i__main__
mutable_room_wrapper
p73
(dp74
g29
(dp75
g31
g70
sg38
(i__main__
mutable_room_wrapper
p76
(dp77
g29
(dp78
g31
g73
sg38
(i__main__
mutable_room_wrapper
p79
(dp80
g29
(dp81
g31
g76
sg38
(i__main__
mutable_room_wrapper
p82
(dp83
g29
(dp84
g31
g79
sS'south'
p85
g55
ssS'room_identifier'
p86
S'immutable_23'
p87
sg11
S'mutable_16'
p88
sS'x_coordinate'
p89
I2
sS'y_coordinate'
p90
I3
sbsg85
g58
ssg86
S'immutable_25'
p91
sg11
S'mutable_20'
p92
sg89
I1
sg90
I3
sbsg85
g61
ssg86
S'immutable_24'
p93
sg11
S'mutable_19'
p94
sg89
I0
sg90
I3
sbsg39
(i__main__
mutable_room_wrapper
p95
(dp96
g29
(dp97
g31
(i__main__
mutable_room_wrapper
p98
(dp99
g29
(dp100
g38
g95
sg85
g70
ssg86
S'immutable_28'
p101
sg11
S'mutable_23'
p102
sg89
I-2
sg90
I4
sbsg85
g73
ssg86
S'immutable_31'
p103
sg11
S'mutable_26'
p104
sg89
I-1
sg90
I4
sbsg85
g64
ssg86
S'immutable_5'
p105
sg11
S'mutable_18'
p106
sg89
I-1
sg90
I3
sbsg39
g98
sg85
g67
ssg86
S'immutable_26'
p107
sg11
S'mutable_21'
p108
sg89
I-2
sg90
I3
sbsg85
g40
ssg86
S'immutable_18'
p109
sg11
S'mutable_17'
p110
sg89
I-2
sg90
I2
sbsg38
g61
sg39
g73
sg85
g43
ssg86
S'immutable_22'
p111
sg11
S'mutable_15'
p112
sg89
I-1
sg90
I2
sbsg38
g58
sg39
g76
sg85
g46
ssg86
S'immutable_17'
p113
sg11
S'mutable_11'
p114
sg89
I0
sg90
I2
sbsg38
g55
sg39
g79
sg85
g49
ssg86
S'immutable_20'
p115
sg11
S'mutable_13'
p116
sg89
I1
sg90
I2
sbsg38
(i__main__
mutable_room_wrapper
p117
(dp118
g29
(dp119
g31
g55
sg38
(i__main__
mutable_room_wrapper
p120
(dp121
g29
(dp122
g31
g117
ssg86
S'immutable_29'
p123
sg11
S'mutable_24'
p124
sg89
I4
sg90
I2
sbssg86
S'immutable_15'
p125
sg11
S'mutable_22'
p126
sg89
I3
sg90
I2
sbsg39
g82
sg85
g52
ssg86
S'immutable_21'
p127
sg11
S'mutable_14'
p128
sg89
I2
sg90
I2
sbsg85
(i__main__
mutable_room_wrapper
p129
(dp130
g29
(dp131
g31
(i__main__
mutable_room_wrapper
p132
(dp133
g29
(dp134
g31
g27
sg38
g129
sg39
g49
ssg86
S'immutable_14'
p135
sg11
S'mutable_7'
p136
sg89
I1
sg90
I0
sbsg38
(i__main__
mutable_room_wrapper
p137
(dp138
g29
(dp139
g31
g129
ssg86
S'immutable_30'
p140
sg11
S'mutable_25'
p141
sg89
I3
sg90
I0
sbsg39
g52
ssg86
S'immutable_19'
p142
sg11
S'mutable_12'
p143
sg89
I2
sg90
I0
sbssg86
S'immutable_16'
p144
sg11
S'mutable_10'
p145
sg89
I2
sg90
I1
sbsg39
g58
sg85
g132
ssg86
S'immutable_27'
p146
sg11
S'mutable_9'
p147
sg89
I1
sg90
I1
sbsg39
g61
sg85
g27
ssg86
S'immutable_3'
p148
sg11
S'mutable_4'
p149
sg89
I0
sg90
I1
sbsg39
g64
sg85
g32
ssg86
S'immutable_13'
p150
sg11
S'mutable_6'
p151
sg89
I-1
sg90
I1
sbsg39
g67
sg85
g35
ssg86
S'immutable_41'
p152
sg11
S'mutable_8'
p153
sg89
I-2
sg90
I1
sbssg86
S'immutable_4'
p154
sg11
S'mutable_5'
p155
sg89
I-2
sg90
I0
sbsg38
g27
sg39
g43
ssg86
S'immutable_12'
p156
sg11
S'mutable_3'
p157
sg89
I-1
sg90
I0
sbsg38
g132
sg39
g46
ssg86
S'immutable_6'
p158
sg11
S'mutable_2'
p159
sg89
I0
sg90
I0
sbag32
ag46
ag35
ag43
ag132
ag40
ag49
ag52
ag61
ag129
ag58
ag55
ag64
ag82
ag67
ag73
ag76
ag79
ag70
ag117
ag98
ag120
ag137
ag95
asg11
g12
sS'beginning'
p160
Nsb.