(i__main__
mutable_serializer_linker
p1
(dp2
S'map'
p3
NsS'current_player'
p4
(i__main__
player
p5
(dp6
S'room_wrapper'
p7
(i__main__
mutable_room_wrapper
p8
(dp9
S'neighbors'
p10
(dp11
S'West'
p12
(i__main__
mutable_room_wrapper
p13
(dp14
g10
(dp15
g12
(i__main__
mutable_room_wrapper
p16
(dp17
g10
(dp18
S'East'
p19
g13
sS'North'
p20
(i__main__
mutable_room_wrapper
p21
(dp22
g10
(dp23
g19
(i__main__
mutable_room_wrapper
p24
(dp25
g10
(dp26
g12
g21
sg19
(i__main__
mutable_room_wrapper
p27
(dp28
g10
(dp29
g12
g24
sg19
(i__main__
mutable_room_wrapper
p30
(dp31
g10
(dp32
g12
g27
sg19
(i__main__
mutable_room_wrapper
p33
(dp34
g10
(dp35
g12
g30
sS'South'
p36
(i__main__
mutable_room_wrapper
p37
(dp38
g10
(dp39
g12
(i__main__
mutable_room_wrapper
p40
(dp41
g10
(dp42
g12
g8
sg19
g37
sg20
g30
ssS'room_identifier'
p43
S'immutable_3'
p44
sS'identifier'
p45
S'mutable_4'
p46
sS'x_coordinate'
p47
I1
sS'y_coordinate'
p48
I0
sbsg19
(i__main__
mutable_room_wrapper
p49
(dp50
g10
(dp51
g12
g37
ssg43
S'immutable_29'
p52
sg45
S'mutable_24'
p53
sg47
I3
sg48
I0
sbsg20
g33
ssg43
S'immutable_18'
p54
sg45
S'mutable_17'
p55
sg47
I2
sg48
I0
sbssg43
S'immutable_25'
p56
sg45
S'mutable_20'
p57
sg47
I2
sg48
I1
sbsg20
(i__main__
mutable_room_wrapper
p58
(dp59
g10
(dp60
g12
(i__main__
mutable_room_wrapper
p61
(dp62
g10
(dp63
g12
(i__main__
mutable_room_wrapper
p64
(dp65
g10
(dp66
g12
(i__main__
mutable_room_wrapper
p67
(dp68
g10
(dp69
g19
g64
sg36
g21
ssg43
S'immutable_30'
p70
sg45
S'mutable_25'
p71
sg47
I-2
sg48
I2
sbsg19
g61
sg20
(i__main__
mutable_room_wrapper
p72
(dp73
g10
(dp74
g19
(i__main__
mutable_room_wrapper
p75
(dp76
g10
(dp77
g12
g72
sg20
(i__main__
mutable_room_wrapper
p78
(dp79
g10
(dp80
g12
(i__main__
mutable_room_wrapper
p81
(dp82
g10
(dp83
g12
(i__main__
mutable_room_wrapper
p84
(dp85
g10
(dp86
g12
(i__main__
mutable_room_wrapper
p87
(dp88
g10
(dp89
g19
g84
sg20
(i__main__
mutable_room_wrapper
p90
(dp91
g10
(dp92
g19
(i__main__
mutable_room_wrapper
p93
(dp94
g10
(dp95
g12
g90
sg19
(i__main__
mutable_room_wrapper
p96
(dp97
g10
(dp98
g12
g93
sg19
(i__main__
mutable_room_wrapper
p99
(dp100
g10
(dp101
g12
g96
sg36
g78
ssg43
S'immutable_21'
p102
sg45
S'mutable_14'
p103
sg47
I0
sg48
I5
sbsg36
g81
ssg43
S'immutable_31'
p104
sg45
S'mutable_26'
p105
sg47
I-1
sg48
I5
sbsg36
g84
ssg43
S'immutable_5'
p106
sg45
S'mutable_18'
p107
sg47
I-2
sg48
I5
sbsg36
g87
ssg43
S'immutable_24'
p108
sg45
S'mutable_19'
p109
sg47
I-3
sg48
I5
sbssg43
S'immutable_23'
p110
sg45
S'mutable_16'
p111
sg47
I-3
sg48
I4
sbsg19
g81
sg20
g93
ssg43
S'immutable_16'
p112
sg45
S'mutable_10'
p113
sg47
I-2
sg48
I4
sbsg19
g78
sg20
g96
sg36
g72
ssg43
S'immutable_27'
p114
sg45
S'mutable_9'
p115
sg47
I-1
sg48
I4
sbsg20
g99
sg36
g75
ssg43
S'immutable_20'
p116
sg45
S'mutable_13'
p117
sg47
I0
sg48
I4
sbsg36
g61
ssg43
S'immutable_22'
p118
sg45
S'mutable_15'
p119
sg47
I0
sg48
I3
sbsg20
g81
sg36
g64
ssg43
S'immutable_14'
p120
sg45
S'mutable_7'
p121
sg47
I-1
sg48
I3
sbsg36
g24
ssg43
S'immutable_13'
p122
sg45
S'mutable_6'
p123
sg47
I-1
sg48
I2
sbsg19
g58
sg20
g75
sg36
g27
ssg43
S'immutable_4'
p124
sg45
S'mutable_5'
p125
sg47
I0
sg48
I2
sbsg36
g30
ssg43
S'immutable_26'
p126
sg45
S'mutable_21'
p127
sg47
I1
sg48
I2
sbsg36
g40
ssg43
S'immutable_41'
p128
sg45
S'mutable_8'
p129
sg47
I1
sg48
I1
sbsg20
g61
sg36
g8
ssg43
S'immutable_12'
p130
sg45
S'mutable_3'
p131
sg47
I0
sg48
I1
sbsg20
g64
sg36
g13
ssg43
S'immutable_19'
p132
sg45
S'mutable_12'
p133
sg47
I-1
sg48
I1
sbsg20
g67
sg36
g16
ssg43
S'immutable_28'
p134
sg45
S'mutable_23'
p135
sg47
I-2
sg48
I1
sbssg43
S'immutable_15'
p136
sg45
S'mutable_22'
p137
sg47
I-2
sg48
I0
sbsg19
g8
sg20
g24
ssg43
S'immutable_17'
p138
sg45
S'mutable_11'
p139
sg47
I-1
sg48
I0
sbsg19
g40
sg20
g27
ssg43
S'immutable_6'
p140
sg45
S'mutable_2'
p141
sg47
I0
sg48
I0
sbsg45
S'mutable_28'
sS'name'
p142
S'Jonathan'
p143
sbsS'current_player_index'
p144
I0
sS'highest_identifier'
p145
I28
sS'current_card'
p146
S'When did you last perceive a hidden analogy?'
p147
sS'furball'
p148
(i__main__
furball
(dp149
g7
g99
sg45
S'mutable_1'
p150
sbsS'players'
p151
(lp152
g5
asS'flags'
p153
S' furball_always_tries_to_move'
sS'room_wrappers'
p154
(lp155
g8
ag27
ag40
ag61
ag64
ag72
ag30
ag81
ag84
ag13
ag24
ag78
ag99
ag75
ag87
ag37
ag93
ag90
ag33
ag58
ag16
ag21
ag49
ag67
ag96
asg45
g150
sS'beginning'
p156
Nsb.